(dp0
Vengine
p1
S'pdflatex'
p2
sVpackages
p3
c__builtin__
set
p4
((lp5
tp6
Rp7
sVfiles_with_guttermarks
p8
g4
((lp9
V/Users/rob/.julia/dev/StatisticalRethinking/chapters/00/./m_0.1t.jl
p10
aS'm_0.1t.jl'
p11
atp12
Rp13
sVsynctex
p14
I01
s.